((lp0
(lp1
S'BLANK'
p2
aS'B'
p3
ag2
aS'B'
p4
ag2
ag3
ag2
ag3
aa(lp5
g3
ag2
ag3
ag2
aS'BLANK'
p6
ag2
ag6
ag2
aa(lp7
g2
aS'W'
p8
ag2
ag6
ag2
ag6
ag2
ag6
aa(lp9
g4
ag2
ag6
ag2
ag6
ag2
ag4
ag2
aa(lp10
g2
aS'BLANK'
p11
ag2
ag6
ag2
ag6
ag2
ag6
aa(lp12
S'W'
p13
ag2
ag8
ag2
ag6
ag2
ag8
ag2
aa(lp14
g2
ag6
ag2
ag13
ag2
ag6
ag2
ag4
aa(lp15
g13
ag2
ag13
ag2
ag13
ag2
ag6
ag2
aaS'BLACK'
p16
tp17
.