(lp0
(lp1
S'Blank'
p2
ag2
ag2
ag2
ag2
ag2
ag2
ag2
aa(lp3
g2
ag2
ag2
ag2
ag2
ag2
ag2
ag2
aa(lp4
g2
ag2
ag2
ag2
ag2
ag2
ag2
ag2
aa(lp5
g2
ag2
ag2
ag2
ag2
ag2
ag2
ag2
aa(lp6
g2
ag2
ag2
ag2
ag2
ag2
ag2
ag2
aa(lp7
g2
ag2
ag2
ag2
ag2
ag2
ag2
ag2
aa(lp8
g2
ag2
ag2
ag2
ag2
ag2
ag2
ag2
aa(lp9
g2
ag2
ag2
ag2
ag2
ag2
ag2
ag2
aa.