((lp0
(lp1
S'BLANK'
p2
aS'B'
p3
ag2
ag3
ag2
ag3
ag2
ag3
aa(lp4
g3
ag2
ag3
ag2
ag3
ag2
ag3
ag2
aa(lp5
g2
ag3
ag2
ag3
ag2
ag3
ag2
ag3
aa(lp6
g2
ag2
ag2
ag2
ag2
ag2
ag2
ag2
aa(lp7
g2
ag2
ag2
ag2
ag2
ag2
ag2
ag2
aa(lp8
S'W'
p9
ag2
ag9
ag2
ag9
ag2
ag9
ag2
aa(lp10
g2
ag9
ag2
ag9
ag2
ag9
ag2
ag9
aa(lp11
g9
ag2
ag9
ag2
ag9
ag2
ag9
ag2
aaS'WHITE'
p12
tp13
.